target datalayout = "e-m:e-p270:32:32-p271:32:32-p272:64:64-i64:64-i128:128-f80:128-n8:16:32:64-S128"
target triple = "x86_64-pc-linux-gnu"

%struct.cli_pe_hook_data = type { i32, i32, i16, i16, %struct.pe_image_file_hdr, %struct.pe_image_optional_hdr32, [16 x %struct.pe_image_data_dir], i32, %struct.pe_image_optional_hdr64, [16 x %struct.pe_image_data_dir], [16 x %struct.pe_image_data_dir], i32, i32, i32, i32 }
%struct.pe_image_file_hdr = type { i32, i16, i16, i32, i32, i32, i16, i16 }
%struct.pe_image_optional_hdr32 = type { i16, i8, i8, i32, i32, i32, i32, i32, i32, i32, i32, i32, i16, i16, i16, i16, i16, i16, i32, i32, i32, i32, i16, i16, i32, i32, i32, i32, i32, i32 }
%struct.pe_image_optional_hdr64 = type { i16, i8, i8, i32, i32, i32, i32, i32, i64, i32, i32, i16, i16, i16, i16, i16, i16, i32, i32, i32, i32, i16, i16, i64, i64, i64, i64, i32, i32 }
%struct.pe_image_data_dir = type { i32, i32 }
%struct.cli_bc_ctx = type { i8, i16, i32, ptr, ptr, i32, i32, ptr, ptr, ptr, i32, i32, i64, ptr, ptr, ptr, %struct.cli_bc_hooks, %struct.cli_exe_info, [64 x i32], [64 x i32], i32, ptr, ptr, i32, i32, i32, i32, ptr, i32, ptr, ptr, i32, i32, i32, i32, i32, i32, ptr, ptr, ptr, ptr, ptr, ptr, ptr, i32, i32, i32, i32, ptr, ptr, ptr, ptr, ptr, i32, i32, i32, i32, ptr, ptr, ptr, ptr, i32, i32, i32, ptr, i32, ptr, i32, i32, ptr, i32 }
%struct.cli_bc_hooks = type { ptr, ptr, ptr, ptr, ptr }
%struct.cli_exe_info = type { ptr, i32, i32, i16, i32, i32, %struct.cli_hashset, i32, i32, i32, i32, i32, i32, i32, i32, i32, %struct.pe_image_file_hdr, %union.anon, [16 x %struct.pe_image_data_dir] }
%struct.cli_hashset = type { ptr, ptr, ptr, i32, i32, i32, i32 }
%union.anon = type { %struct.pe_image_optional_hdr64 }
%struct.cli_ctx_tag = type { ptr, ptr, ptr, ptr, ptr, ptr, ptr, i64, ptr, i32, i32, ptr, i32, i32, ptr, [16 x i8], ptr, ptr, ptr, ptr, ptr, ptr, %struct.timeval, i8, i8 }
%struct.timeval = type { i64, i64 }
%struct.cl_engine = type { i32, i32, i32, [2 x i32], i32, i32, i32, ptr, i32, i64, i32, i32, i64, i64, i32, i32, i32, i32, ptr, ptr, ptr, ptr, ptr, ptr, ptr, ptr, ptr, ptr, ptr, ptr, ptr, ptr, ptr, ptr, ptr, ptr, ptr, i64, ptr, %struct.crtmgr, ptr, ptr, ptr, ptr, ptr, ptr, ptr, ptr, ptr, ptr, ptr, ptr, ptr, ptr, ptr, ptr, ptr, %struct.cli_all_bc, [7 x ptr], [7 x i32], i32, i32, i32, i32, i64, i64, i64, i64, i64, ptr, ptr, ptr, ptr, ptr, ptr, ptr, ptr, ptr, i32, i32, i32, i64, i64, i64, ptr }
%struct.crtmgr = type { ptr, i32 }
%struct.cli_all_bc = type { ptr, i32, ptr, %struct.cli_environment, i32 }
%struct.cli_environment = type { i32, i32, i32, i32, i32, i32, i32, [65 x i8], [65 x i8], [65 x i8], [65 x i8], [65 x i8], [65 x i8], [65 x i8], i8, i8, i8, i8, i8, i8, i8, i8, i8 }
%struct.cli_bc = type { %struct.bytecode_metadata, i32, i32, i32, i32, ptr, ptr, ptr, ptr, i64, i32, ptr, ptr, ptr, ptr, i32, i16, ptr, i32, i32, i32, i32, ptr, i32, i32, ptr }
%struct.bytecode_metadata = type { ptr, ptr, i64, i32, i32, i32, i32, i32 }
%struct.cl_fmap = type { ptr, ptr, ptr, i64, i64, i64, i64, i8, i8, i8, i64, i64, i64, i64, ptr, ptr, ptr, ptr, ptr, ptr, ptr, i8, [16 x i8], i8, [20 x i8], i8, [32 x i8], ptr, ptr }
%struct.cli_target_info = type { i64, %struct.cli_exe_info, i32 }

@.str.62 = private unnamed_addr constant [33 x i8] c"hook lsig id %d matched (bc %d)\0A\00", align 1
@.str.63 = private unnamed_addr constant [61 x i8] c"Running bytecode '%s' (id: %u) for logical signature match.\0A\00", align 1
@.str.64 = private unnamed_addr constant [42 x i8] c"Bytecode '%s' (id: %u) failed to run: %s\0A\00", align 1
@.str.65 = private unnamed_addr constant [53 x i8] c"Exceeded scan timeout during bytecode run (max: %u)\0A\00", align 1
@.str.66 = private unnamed_addr constant [26 x i8] c"Bytecode found virus: %s\0A\00", align 1
@.str.67 = private unnamed_addr constant [42 x i8] c"Bytecode '%s' (id: %u) returned code: %u\0A\00", align 1

; Function Attrs: nounwind uwtable
define i64 @cli_bytecode_context_getresult_int(ptr noundef %0) #0 {
  %2 = alloca ptr, align 8
  store ptr %0, ptr %2, align 8
  %3 = load ptr, ptr %2, align 8
  %4 = getelementptr inbounds %struct.cli_bc_ctx, ptr %3, i32 0, i32 8
  %5 = load ptr, ptr %4, align 8
  %6 = load i32, ptr %5, align 4
  %7 = zext i32 %6 to i64
  ret i64 %7
}

; Function Attrs: nounwind uwtable
define i32 @cli_bytecode_context_setfile(ptr noundef %0, ptr noundef %1) #0 {
  %3 = alloca ptr, align 8
  %4 = alloca ptr, align 8
  store ptr %0, ptr %3, align 8
  store ptr %1, ptr %4, align 8
  %5 = load ptr, ptr %4, align 8
  %6 = load ptr, ptr %3, align 8
  %7 = getelementptr inbounds %struct.cli_bc_ctx, ptr %6, i32 0, i32 13
  store ptr %5, ptr %7, align 8
  %8 = load ptr, ptr %4, align 8
  %9 = getelementptr inbounds %struct.cl_fmap, ptr %8, i32 0, i32 13
  %10 = load i64, ptr %9, align 8
  %11 = trunc i64 %10 to i32
  %12 = load ptr, ptr %3, align 8
  %13 = getelementptr inbounds %struct.cli_bc_ctx, ptr %12, i32 0, i32 10
  store i32 %11, ptr %13, align 8
  %14 = load ptr, ptr %3, align 8
  %15 = getelementptr inbounds %struct.cli_bc_ctx, ptr %14, i32 0, i32 10
  %16 = load ptr, ptr %3, align 8
  %17 = getelementptr inbounds %struct.cli_bc_ctx, ptr %16, i32 0, i32 16
  %18 = getelementptr inbounds %struct.cli_bc_hooks, ptr %17, i32 0, i32 3
  store ptr %15, ptr %18, align 8
  ret i32 0
}

; Function Attrs: nounwind uwtable
define void @cli_bytecode_context_setctx(ptr noundef %0, ptr noundef %1) #0 {
  %3 = alloca ptr, align 8
  %4 = alloca ptr, align 8
  store ptr %0, ptr %3, align 8
  store ptr %1, ptr %4, align 8
  %5 = load ptr, ptr %4, align 8
  %6 = load ptr, ptr %3, align 8
  %7 = getelementptr inbounds %struct.cli_bc_ctx, ptr %6, i32 0, i32 30
  store ptr %5, ptr %7, align 8
  %8 = load ptr, ptr %4, align 8
  %9 = getelementptr inbounds %struct.cli_ctx_tag, ptr %8, i32 0, i32 6
  %10 = load ptr, ptr %9, align 8
  %11 = getelementptr inbounds %struct.cl_engine, ptr %10, i32 0, i32 62
  %12 = load i32, ptr %11, align 4
  %13 = load ptr, ptr %3, align 8
  %14 = getelementptr inbounds %struct.cli_bc_ctx, ptr %13, i32 0, i32 5
  store i32 %12, ptr %14, align 8
  ret void
}

; Function Attrs: nounwind uwtable
define internal void @bytecode_context_initialize(ptr noundef %0) #0 {
  %2 = alloca ptr, align 8
  store ptr %0, ptr %2, align 8
  %3 = load ptr, ptr %2, align 8
  call void @llvm.memset.p0.i64(ptr align 8 %3, i8 0, i64 1344, i1 false)
  %4 = load ptr, ptr %2, align 8
  %5 = getelementptr inbounds %struct.cli_bc_ctx, ptr %4, i32 0, i32 5
  store i32 60000, ptr %5, align 8
  %6 = load ptr, ptr %2, align 8
  %7 = getelementptr inbounds %struct.cli_bc_ctx, ptr %6, i32 0, i32 11
  store i32 -1, ptr %7, align 4
  ret void
}

; Function Attrs: nounwind uwtable
define i32 @cli_bytecode_runlsig(ptr noundef %0, ptr noundef %1, ptr noundef %2, i32 noundef %3, ptr noundef %4, ptr noundef %5, ptr noundef %6) #0 {
  %8 = alloca i32, align 4
  %9 = alloca ptr, align 8
  %10 = alloca ptr, align 8
  %11 = alloca ptr, align 8
  %12 = alloca i32, align 4
  %13 = alloca ptr, align 8
  %14 = alloca ptr, align 8
  %15 = alloca ptr, align 8
  %16 = alloca i32, align 4
  %17 = alloca %struct.cli_bc_ctx, align 8
  %18 = alloca ptr, align 8
  %19 = alloca %struct.cli_pe_hook_data, align 8
  %20 = alloca ptr, align 8
  %21 = alloca i32, align 4
  store ptr %0, ptr %9, align 8
  store ptr %1, ptr %10, align 8
  store ptr %2, ptr %11, align 8
  store i32 %3, ptr %12, align 4
  store ptr %4, ptr %13, align 8
  store ptr %5, ptr %14, align 8
  store ptr %6, ptr %15, align 8
  %22 = load ptr, ptr %11, align 8
  %23 = getelementptr inbounds %struct.cli_all_bc, ptr %22, i32 0, i32 0
  %24 = load ptr, ptr %23, align 8
  %25 = load i32, ptr %12, align 4
  %26 = sub i32 %25, 1
  %27 = zext i32 %26 to i64
  %28 = getelementptr inbounds %struct.cli_bc, ptr %24, i64 %27
  store ptr %28, ptr %18, align 8
  store ptr null, ptr %20, align 8
  %29 = load i32, ptr %12, align 4
  %30 = icmp eq i32 %29, 0
  br i1 %30, label %31, label %32

31:                                               ; preds = %7
  store i32 2, ptr %8, align 4
  br label %181

32:                                               ; preds = %7
  %33 = load ptr, ptr %18, align 8
  %34 = getelementptr inbounds %struct.cli_bc, ptr %33, i32 0, i32 12
  %35 = load ptr, ptr %34, align 8
  %36 = icmp ne ptr null, %35
  br i1 %36, label %37, label %41

37:                                               ; preds = %32
  %38 = load ptr, ptr %18, align 8
  %39 = getelementptr inbounds %struct.cli_bc, ptr %38, i32 0, i32 12
  %40 = load ptr, ptr %39, align 8
  store ptr %40, ptr %20, align 8
  br label %51

41:                                               ; preds = %32
  %42 = load ptr, ptr %18, align 8
  %43 = getelementptr inbounds %struct.cli_bc, ptr %42, i32 0, i32 25
  %44 = load ptr, ptr %43, align 8
  %45 = icmp ne ptr null, %44
  br i1 %45, label %46, label %50

46:                                               ; preds = %41
  %47 = load ptr, ptr %18, align 8
  %48 = getelementptr inbounds %struct.cli_bc, ptr %47, i32 0, i32 25
  %49 = load ptr, ptr %48, align 8
  store ptr %49, ptr %20, align 8
  br label %50

50:                                               ; preds = %46, %41
  br label %51

51:                                               ; preds = %50, %37
  call void @bytecode_context_initialize(ptr noundef %17)
  %52 = load ptr, ptr %18, align 8
  %53 = call i32 @cli_bytecode_context_setfuncid(ptr noundef %17, ptr noundef %52, i32 noundef 0)
  %54 = load ptr, ptr %13, align 8
  %55 = getelementptr inbounds %struct.cli_bc_ctx, ptr %17, i32 0, i32 16
  %56 = getelementptr inbounds %struct.cli_bc_hooks, ptr %55, i32 0, i32 2
  store ptr %54, ptr %56, align 8
  %57 = load ptr, ptr %14, align 8
  %58 = getelementptr inbounds %struct.cli_bc_ctx, ptr %17, i32 0, i32 16
  %59 = getelementptr inbounds %struct.cli_bc_hooks, ptr %58, i32 0, i32 0
  store ptr %57, ptr %59, align 8
  %60 = load ptr, ptr %9, align 8
  call void @cli_bytecode_context_setctx(ptr noundef %17, ptr noundef %60)
  %61 = load ptr, ptr %15, align 8
  %62 = call i32 @cli_bytecode_context_setfile(ptr noundef %17, ptr noundef %61)
  %63 = load ptr, ptr %10, align 8
  %64 = icmp ne ptr %63, null
  br i1 %64, label %65, label %103

65:                                               ; preds = %51
  %66 = load ptr, ptr %10, align 8
  %67 = getelementptr inbounds %struct.cli_target_info, ptr %66, i32 0, i32 2
  %68 = load i32, ptr %67, align 8
  %69 = icmp eq i32 %68, 1
  br i1 %69, label %70, label %103

70:                                               ; preds = %65
  %71 = load ptr, ptr %10, align 8
  %72 = getelementptr inbounds %struct.cli_target_info, ptr %71, i32 0, i32 1
  %73 = getelementptr inbounds %struct.cli_exe_info, ptr %72, i32 0, i32 0
  %74 = load ptr, ptr %73, align 8
  %75 = getelementptr inbounds %struct.cli_bc_ctx, ptr %17, i32 0, i32 27
  store ptr %74, ptr %75, align 8
  call void @llvm.memset.p0.i64(ptr align 8 %19, i8 0, i64 648, i1 false)
  %76 = load ptr, ptr %10, align 8
  %77 = getelementptr inbounds %struct.cli_target_info, ptr %76, i32 0, i32 1
  %78 = getelementptr inbounds %struct.cli_exe_info, ptr %77, i32 0, i32 1
  %79 = load i32, ptr %78, align 8
  %80 = getelementptr inbounds %struct.cli_pe_hook_data, ptr %19, i32 0, i32 0
  store i32 %79, ptr %80, align 8
  %81 = load ptr, ptr %10, align 8
  %82 = getelementptr inbounds %struct.cli_target_info, ptr %81, i32 0, i32 1
  %83 = getelementptr inbounds %struct.cli_exe_info, ptr %82, i32 0, i32 2
  %84 = load i32, ptr %83, align 4
  %85 = getelementptr inbounds %struct.cli_pe_hook_data, ptr %19, i32 0, i32 1
  store i32 %84, ptr %85, align 4
  %86 = load ptr, ptr %10, align 8
  %87 = getelementptr inbounds %struct.cli_target_info, ptr %86, i32 0, i32 1
  %88 = getelementptr inbounds %struct.cli_exe_info, ptr %87, i32 0, i32 3
  %89 = load i16, ptr %88, align 8
  %90 = getelementptr inbounds %struct.cli_pe_hook_data, ptr %19, i32 0, i32 2
  store i16 %89, ptr %90, align 8
  %91 = load ptr, ptr %10, align 8
  %92 = getelementptr inbounds %struct.cli_target_info, ptr %91, i32 0, i32 1
  %93 = getelementptr inbounds %struct.cli_exe_info, ptr %92, i32 0, i32 5
  %94 = load i32, ptr %93, align 8
  %95 = getelementptr inbounds %struct.cli_pe_hook_data, ptr %19, i32 0, i32 14
  store i32 %94, ptr %95, align 4
  %96 = getelementptr inbounds %struct.cli_bc_ctx, ptr %17, i32 0, i32 16
  %97 = getelementptr inbounds %struct.cli_bc_hooks, ptr %96, i32 0, i32 4
  store ptr %19, ptr %97, align 8
  %98 = load ptr, ptr %10, align 8
  %99 = getelementptr inbounds %struct.cli_target_info, ptr %98, i32 0, i32 1
  %100 = getelementptr inbounds %struct.cli_exe_info, ptr %99, i32 0, i32 4
  %101 = load i32, ptr %100, align 4
  %102 = getelementptr inbounds %struct.cli_bc_ctx, ptr %17, i32 0, i32 28
  store i32 %101, ptr %102, align 8
  br label %103

103:                                              ; preds = %70, %65, %51
  %104 = load ptr, ptr %18, align 8
  %105 = getelementptr inbounds %struct.cli_bc, ptr %104, i32 0, i32 19
  %106 = load i32, ptr %105, align 4
  %107 = icmp ne i32 %106, 0
  br i1 %107, label %108, label %134

108:                                              ; preds = %103
  %109 = load ptr, ptr %18, align 8
  %110 = getelementptr inbounds %struct.cli_bc, ptr %109, i32 0, i32 19
  %111 = load i32, ptr %110, align 4
  %112 = load ptr, ptr %18, align 8
  %113 = getelementptr inbounds %struct.cli_bc, ptr %112, i32 0, i32 1
  %114 = load i32, ptr %113, align 8
  call void (ptr, ...) @cli_dbgmsg(ptr noundef @.str.62, i32 noundef %111, i32 noundef %114)
  %115 = load ptr, ptr %9, align 8
  %116 = getelementptr inbounds %struct.cli_ctx_tag, ptr %115, i32 0, i32 17
  %117 = load ptr, ptr %116, align 8
  %118 = icmp ne ptr %117, null
  br i1 %118, label %119, label %129

119:                                              ; preds = %108
  %120 = load ptr, ptr %9, align 8
  %121 = getelementptr inbounds %struct.cli_ctx_tag, ptr %120, i32 0, i32 17
  %122 = load ptr, ptr %121, align 8
  %123 = load ptr, ptr %18, align 8
  %124 = getelementptr inbounds %struct.cli_bc, ptr %123, i32 0, i32 19
  %125 = load i32, ptr %124, align 4
  %126 = sub i32 %125, 1
  %127 = zext i32 %126 to i64
  %128 = call i32 @cli_bitset_set(ptr noundef %122, i64 noundef %127)
  br label %129

129:                                              ; preds = %119, %108
  %130 = getelementptr inbounds %struct.cli_bc_ctx, ptr %17, i32 0, i32 18
  %131 = load ptr, ptr %13, align 8
  call void @llvm.memcpy.p0.p0.i64(ptr align 8 %130, ptr align 4 %131, i64 256, i1 false)
  %132 = getelementptr inbounds %struct.cli_bc_ctx, ptr %17, i32 0, i32 19
  %133 = load ptr, ptr %14, align 8
  call void @llvm.memcpy.p0.p0.i64(ptr align 8 %132, ptr align 4 %133, i64 256, i1 false)
  call void @bytecode_context_reset(ptr noundef %17)
  store i32 0, ptr %8, align 4
  br label %181

134:                                              ; preds = %103
  %135 = load ptr, ptr %20, align 8
  %136 = load ptr, ptr %18, align 8
  %137 = getelementptr inbounds %struct.cli_bc, ptr %136, i32 0, i32 1
  %138 = load i32, ptr %137, align 8
  call void (ptr, ...) @cli_dbgmsg(ptr noundef @.str.63, ptr noundef %135, i32 noundef %138)
  %139 = load ptr, ptr %11, align 8
  %140 = load ptr, ptr %18, align 8
  %141 = call i32 @cli_bytecode_run(ptr noundef %139, ptr noundef %140, ptr noundef %17)
  store i32 %141, ptr %16, align 4
  %142 = load i32, ptr %16, align 4
  %143 = icmp ne i32 %142, 0
  br i1 %143, label %144, label %161

144:                                              ; preds = %134
  %145 = load ptr, ptr %20, align 8
  %146 = load ptr, ptr %18, align 8
  %147 = getelementptr inbounds %struct.cli_bc, ptr %146, i32 0, i32 1
  %148 = load i32, ptr %147, align 8
  %149 = load i32, ptr %16, align 4
  %150 = call ptr @cl_strerror(i32 noundef %149)
  call void (ptr, ...) @cli_warnmsg(ptr noundef @.str.64, ptr noundef %145, i32 noundef %148, ptr noundef %150)
  call void @bytecode_context_reset(ptr noundef %17)
  %151 = load ptr, ptr %9, align 8
  %152 = call i32 @cli_checktimelimit(ptr noundef %151)
  %153 = icmp ne i32 %152, 0
  br i1 %153, label %154, label %160

154:                                              ; preds = %144
  %155 = load ptr, ptr %9, align 8
  %156 = getelementptr inbounds %struct.cli_ctx_tag, ptr %155, i32 0, i32 6
  %157 = load ptr, ptr %156, align 8
  %158 = getelementptr inbounds %struct.cl_engine, ptr %157, i32 0, i32 11
  %159 = load i32, ptr %158, align 4
  call void (ptr, ...) @cli_dbgmsg(ptr noundef @.str.65, i32 noundef %159)
  store i32 21, ptr %8, align 4
  br label %181

160:                                              ; preds = %144
  store i32 0, ptr %8, align 4
  br label %181

161:                                              ; preds = %134
  %162 = getelementptr inbounds %struct.cli_bc_ctx, ptr %17, i32 0, i32 15
  %163 = load ptr, ptr %162, align 8
  %164 = icmp ne ptr %163, null
  br i1 %164, label %165, label %173

165:                                              ; preds = %161
  %166 = getelementptr inbounds %struct.cli_bc_ctx, ptr %17, i32 0, i32 15
  %167 = load ptr, ptr %166, align 8
  call void (ptr, ...) @cli_dbgmsg(ptr noundef @.str.66, ptr noundef %167)
  %168 = load ptr, ptr %9, align 8
  %169 = getelementptr inbounds %struct.cli_bc_ctx, ptr %17, i32 0, i32 15
  %170 = load ptr, ptr %169, align 8
  %171 = call i32 @cli_append_virus(ptr noundef %168, ptr noundef %170)
  store i32 %171, ptr %21, align 4
  call void @bytecode_context_reset(ptr noundef %17)
  %172 = load i32, ptr %21, align 4
  store i32 %172, ptr %8, align 4
  br label %181

173:                                              ; preds = %161
  %174 = call i64 @cli_bytecode_context_getresult_int(ptr noundef %17)
  %175 = trunc i64 %174 to i32
  store i32 %175, ptr %16, align 4
  %176 = load ptr, ptr %20, align 8
  %177 = load ptr, ptr %18, align 8
  %178 = getelementptr inbounds %struct.cli_bc, ptr %177, i32 0, i32 1
  %179 = load i32, ptr %178, align 8
  %180 = load i32, ptr %16, align 4
  call void (ptr, ...) @cli_dbgmsg(ptr noundef @.str.67, ptr noundef %176, i32 noundef %179, i32 noundef %180)
  call void @bytecode_context_reset(ptr noundef %17)
  store i32 0, ptr %8, align 4
  br label %181

181:                                              ; preds = %173, %165, %160, %154, %129, %31
  %182 = load i32, ptr %8, align 4
  ret i32 %182
}