; Function Attrs: nounwind uwtable
define i32 @cli_bytecode_runlsig(ptr noundef %0, ptr noundef readonly %1, ptr noundef %2, i32 noundef %3, ptr noundef %4, ptr noundef %5, ptr noundef %6) local_unnamed_addr #0 {
  %8 = alloca %struct.cli_bc_ctx, align 8
  %9 = alloca %struct.cli_pe_hook_data, align 8
  %10 = load ptr, ptr %2, align 8
  %11 = add i32 %3, -1
  %12 = zext i32 %11 to i64
  %13 = getelementptr inbounds %struct.cli_bc, ptr %10, i64 %12
  %14 = icmp eq i32 %3, 0
  br i1 %14, label %96, label %15

15:                                               ; preds = %7
  %16 = getelementptr inbounds i8, ptr %13, i64 120
  %17 = load ptr, ptr %16, align 8
  %.not = icmp eq ptr %17, null
  br i1 %.not, label %18, label %21

18:                                               ; preds = %15
  %19 = getelementptr inbounds i8, ptr %13, i64 192
  %20 = load ptr, ptr %19, align 8
  br label %21

21:                                               ; preds = %18, %15
  %.043 = phi ptr [ %17, %15 ], [ %20, %18 ]
  call void @llvm.memset.p0.i64(ptr noundef nonnull align 8 dereferenceable(1344) %8, i8 0, i64 1344, i1 false)
  %22 = getelementptr inbounds i8, ptr %8, i64 24
  store i32 60000, ptr %22, align 8
  %23 = getelementptr inbounds i8, ptr %8, i64 60
  store i32 -1, ptr %23, align 4
  %24 = call i32 @cli_bytecode_context_setfuncid(ptr noundef nonnull %8, ptr noundef nonnull %13, i32 noundef 0), !range !8
  %25 = getelementptr inbounds i8, ptr %8, i64 96
  %26 = getelementptr inbounds i8, ptr %8, i64 112
  store ptr %4, ptr %26, align 8
  store ptr %5, ptr %25, align 8
  %27 = getelementptr inbounds i8, ptr %8, i64 1088
  store ptr %0, ptr %27, align 8
  %28 = getelementptr inbounds i8, ptr %0, i64 48
  %29 = load ptr, ptr %28, align 8
  %30 = getelementptr inbounds i8, ptr %29, i64 1028
  %31 = load i32, ptr %30, align 4
  store i32 %31, ptr %22, align 8
  %32 = getelementptr inbounds i8, ptr %8, i64 72
  store ptr %6, ptr %32, align 8
  %33 = getelementptr inbounds i8, ptr %6, i64 88
  %34 = load i64, ptr %33, align 8
  %35 = trunc i64 %34 to i32
  %36 = getelementptr inbounds i8, ptr %8, i64 56
  store i32 %35, ptr %36, align 8
  %37 = getelementptr inbounds i8, ptr %8, i64 120
  store ptr %36, ptr %37, align 8
  %.not52 = icmp eq ptr %1, null
  br i1 %.not52, label %59, label %38

38:                                               ; preds = %21
  %39 = getelementptr inbounds i8, ptr %1, i64 384
  %40 = load i32, ptr %39, align 8
  %41 = icmp eq i32 %40, 1
  br i1 %41, label %42, label %59

42:                                               ; preds = %38
  %43 = getelementptr inbounds i8, ptr %1, i64 8
  %44 = load ptr, ptr %43, align 8
  %45 = getelementptr inbounds i8, ptr %8, i64 1064
  store ptr %44, ptr %45, align 8
  %46 = getelementptr inbounds i8, ptr %9, i64 8
  call void @llvm.memset.p0.i64(ptr noundef nonnull align 8 dereferenceable(648) %46, i8 0, i64 640, i1 false)
  %47 = getelementptr inbounds i8, ptr %1, i64 16
  %48 = load <2 x i32>, ptr %47, align 8
  store <2 x i32> %48, ptr %9, align 8
  %49 = getelementptr inbounds i8, ptr %1, i64 24
  %50 = load i16, ptr %49, align 8
  %51 = getelementptr inbounds i8, ptr %9, i64 8
  store i16 %50, ptr %51, align 8
  %52 = getelementptr inbounds i8, ptr %1, i64 32
  %53 = load i32, ptr %52, align 8
  %54 = getelementptr inbounds i8, ptr %9, i64 644
  store i32 %53, ptr %54, align 4
  %55 = getelementptr inbounds i8, ptr %8, i64 128
  store ptr %9, ptr %55, align 8
  %56 = getelementptr inbounds i8, ptr %1, i64 28
  %57 = load i32, ptr %56, align 4
  %58 = getelementptr inbounds i8, ptr %8, i64 1072
  store i32 %57, ptr %58, align 8
  br label %59

59:                                               ; preds = %42, %38, %21
  %60 = getelementptr inbounds i8, ptr %13, i64 164
  %61 = load i32, ptr %60, align 4
  %.not53 = icmp eq i32 %61, 0
  %62 = getelementptr inbounds i8, ptr %13, i64 48
  %63 = load i32, ptr %62, align 8
  br i1 %.not53, label %75, label %64

64:                                               ; preds = %59
  call void (ptr, ...) @cli_dbgmsg(ptr noundef nonnull @.str.62, i32 noundef %61, i32 noundef %63) #25
  %65 = getelementptr inbounds i8, ptr %0, i64 128
  %66 = load ptr, ptr %65, align 8
  %.not57 = icmp eq ptr %66, null
  br i1 %.not57, label %72, label %67

67:                                               ; preds = %64
  %68 = load i32, ptr %60, align 4
  %69 = add i32 %68, -1
  %70 = zext i32 %69 to i64
  %71 = call i32 @cli_bitset_set(ptr noundef nonnull %66, i64 noundef %70) #25
  br label %72

72:                                               ; preds = %67, %64
  %73 = getelementptr inbounds i8, ptr %8, i64 512
  call void @llvm.memcpy.p0.p0.i64(ptr noundef nonnull align 8 dereferenceable(256) %73, ptr noundef nonnull align 4 dereferenceable(256) %4, i64 256, i1 false)
  %74 = getelementptr inbounds i8, ptr %8, i64 768
  call void @llvm.memcpy.p0.p0.i64(ptr noundef nonnull align 8 dereferenceable(256) %74, ptr noundef nonnull align 4 dereferenceable(256) %5, i64 256, i1 false)
  call fastcc void @bytecode_context_reset(ptr noundef nonnull %8)
  br label %96

75:                                               ; preds = %59
  call void (ptr, ...) @cli_dbgmsg(ptr noundef nonnull @.str.63, ptr noundef %.043, i32 noundef %63) #25
  %76 = call i32 @cli_bytecode_run(ptr noundef nonnull %2, ptr noundef nonnull %13, ptr noundef nonnull %8)
  %.not54 = icmp eq i32 %76, 0
  br i1 %.not54, label %85, label %77

77:                                               ; preds = %75
  %78 = load i32, ptr %62, align 8
  %79 = call ptr @cl_strerror(i32 noundef %76) #25
  call void (ptr, ...) @cli_warnmsg(ptr noundef nonnull @.str.64, ptr noundef %.043, i32 noundef %78, ptr noundef %79) #25
  call fastcc void @bytecode_context_reset(ptr noundef nonnull %8)
  %80 = call i32 @cli_checktimelimit(ptr noundef nonnull %0) #25
  %.not56 = icmp eq i32 %80, 0
  br i1 %.not56, label %96, label %81

81:                                               ; preds = %77
  %82 = load ptr, ptr %28, align 8
  %83 = getelementptr inbounds i8, ptr %82, i64 60
  %84 = load i32, ptr %83, align 4
  call void (ptr, ...) @cli_dbgmsg(ptr noundef nonnull @.str.65, i32 noundef %84) #25
  br label %96

85:                                               ; preds = %75
  %86 = getelementptr inbounds i8, ptr %8, i64 88
  %87 = load ptr, ptr %86, align 8
  %.not55 = icmp eq ptr %87, null
  br i1 %.not55, label %91, label %88

88:                                               ; preds = %85
  call void (ptr, ...) @cli_dbgmsg(ptr noundef nonnull @.str.66, ptr noundef nonnull %87) #25
  %89 = load ptr, ptr %86, align 8
  %90 = call i32 @cli_append_virus(ptr noundef nonnull %0, ptr noundef %89) #25
  call fastcc void @bytecode_context_reset(ptr noundef nonnull %8)
  br label %96

91:                                               ; preds = %85
  %92 = getelementptr inbounds i8, ptr %8, i64 40
  %93 = load ptr, ptr %92, align 8
  %94 = load i32, ptr %93, align 4
  %95 = load i32, ptr %62, align 8
  call void (ptr, ...) @cli_dbgmsg(ptr noundef nonnull @.str.67, ptr noundef %.043, i32 noundef %95, i32 noundef %94) #25
  call fastcc void @bytecode_context_reset(ptr noundef nonnull %8)
  br label %96

96:                                               ; preds = %77, %7, %91, %88, %81, %72
  %.0 = phi i32 [ 0, %72 ], [ 21, %81 ], [ %90, %88 ], [ 0, %91 ], [ 2, %7 ], [ 0, %77 ]
  ret i32 %.0
}